target datalayout = "e-m:e-p270:32:32-p271:32:32-p272:64:64-i64:64-i128:128-f80:128-n8:16:32:64-S128"
target triple = "x86_64-pc-linux-gnu"

%struct.ident_t = type { i32, i32, i32, i32, ptr }
%"class.LightGBM::Metric" = type { ptr }
%"class.std::vector" = type { %"struct.std::_Vector_base" }
%"struct.std::_Vector_base" = type { %"struct.std::_Vector_base<std::__cxx11::basic_string<char>, std::allocator<std::__cxx11::basic_string<char>>>::_Vector_impl" }
%"struct.std::_Vector_base<std::__cxx11::basic_string<char>, std::allocator<std::__cxx11::basic_string<char>>>::_Vector_impl" = type { %"struct.std::_Vector_base<std::__cxx11::basic_string<char>, std::allocator<std::__cxx11::basic_string<char>>>::_Vector_impl_data" }
%"struct.std::_Vector_base<std::__cxx11::basic_string<char>, std::allocator<std::__cxx11::basic_string<char>>>::_Vector_impl_data" = type { ptr, ptr, ptr }
%"class.LightGBM::BinaryMetric.34" = type { %"class.LightGBM::Metric", i32, ptr, ptr, double, %"class.std::vector" }

@1 = private unnamed_addr constant %struct.ident_t { i32 0, i32 514, i32 0, i32 22, ptr @0 }, align 8
@.gomp_critical_user_.reduction.var = common global [8 x i32] zeroinitializer, align 8
@2 = private unnamed_addr constant %struct.ident_t { i32 0, i32 18, i32 0, i32 22, ptr @0 }, align 8

; Function Attrs: noinline noreturn nounwind uwtable
define linkonce_odr hidden void @__clang_call_terminate(ptr noundef %0) #10 comdat {
  %2 = call ptr @__cxa_begin_catch(ptr %0) #3
  call void @_ZSt9terminatev() #27
  unreachable
}

; Function Attrs: inlinehint mustprogress nounwind uwtable
define linkonce_odr noundef double @_ZN8LightGBM17BinaryErrorMetric11LossOnPointEfd(float noundef %0, double noundef %1) #5 comdat align 2 {
  %3 = alloca double, align 8
  %4 = alloca float, align 4
  %5 = alloca double, align 8
  store float %0, ptr %4, align 4, !tbaa !130
  store double %1, ptr %5, align 8, !tbaa !138
  %6 = load double, ptr %5, align 8, !tbaa !138
  %7 = fcmp ole double %6, 5.000000e-01
  br i1 %7, label %8, label %12

8:                                                ; preds = %2
  %9 = load float, ptr %4, align 4, !tbaa !130
  %10 = fcmp ogt float %9, 0.000000e+00
  %11 = uitofp i1 %10 to double
  store double %11, ptr %3, align 8
  br label %16

12:                                               ; preds = %2
  %13 = load float, ptr %4, align 4, !tbaa !130
  %14 = fcmp ole float %13, 0.000000e+00
  %15 = uitofp i1 %14 to double
  store double %15, ptr %3, align 8
  br label %16

16:                                               ; preds = %12, %8
  %17 = load double, ptr %3, align 8
  ret double %17
}

; Function Attrs: alwaysinline norecurse nounwind uwtable
define internal void @_ZNK8LightGBM12BinaryMetricINS_17BinaryErrorMetricEE4EvalEPKdPKNS_17ObjectiveFunctionE.omp_outlined.50(ptr noalias noundef %0, ptr noalias noundef %1, ptr noundef %2, ptr noundef nonnull align 8 dereferenceable(8) %3, ptr noundef nonnull align 8 dereferenceable(8) %4) #17 personality ptr @__gxx_personality_v0 {
  %6 = alloca ptr, align 8
  %7 = alloca ptr, align 8
  %8 = alloca ptr, align 8
  %9 = alloca ptr, align 8
  %10 = alloca ptr, align 8
  %11 = alloca i32, align 4
  %12 = alloca i32, align 4
  %13 = alloca i32, align 4
  %14 = alloca i32, align 4
  %15 = alloca i32, align 4
  %16 = alloca i32, align 4
  %17 = alloca i32, align 4
  %18 = alloca i32, align 4
  %19 = alloca double, align 8
  %20 = alloca i32, align 4
  %21 = alloca [1 x ptr], align 8
  store ptr %0, ptr %6, align 8, !tbaa !234
  store ptr %1, ptr %7, align 8, !tbaa !234
  store ptr %2, ptr %8, align 8, !tbaa !372
  store ptr %3, ptr %9, align 8, !tbaa !135
  store ptr %4, ptr %10, align 8, !tbaa !222
  %22 = load ptr, ptr %8, align 8, !tbaa !372
  %23 = load ptr, ptr %9, align 8, !tbaa !135
  %24 = load ptr, ptr %10, align 8, !tbaa !222
  call void @llvm.lifetime.start.p0(i64 4, ptr %11) #3
  call void @llvm.lifetime.start.p0(i64 4, ptr %12) #3
  %25 = getelementptr inbounds nuw %"class.LightGBM::BinaryMetric.34", ptr %22, i32 0, i32 1
  %26 = load i32, ptr %25, align 8, !tbaa !374
  store i32 %26, ptr %12, align 4, !tbaa !124
  call void @llvm.lifetime.start.p0(i64 4, ptr %13) #3
  %27 = load i32, ptr %12, align 4, !tbaa !124
  %28 = sub nsw i32 %27, 0
  %29 = sdiv i32 %28, 1
  %30 = sub nsw i32 %29, 1
  store i32 %30, ptr %13, align 4, !tbaa !124
  call void @llvm.lifetime.start.p0(i64 4, ptr %14) #3
  store i32 0, ptr %14, align 4, !tbaa !124
  call void @llvm.lifetime.end.p0(i64 4, ptr %14) #3
  %31 = load i32, ptr %12, align 4, !tbaa !124
  %32 = icmp slt i32 0, %31
  br i1 %32, label %33, label %98

33:                                               ; preds = %5
  call void @llvm.lifetime.start.p0(i64 4, ptr %15) #3
  store i32 0, ptr %15, align 4, !tbaa !124
  call void @llvm.lifetime.start.p0(i64 4, ptr %16) #3
  %34 = load i32, ptr %13, align 4, !tbaa !124
  store i32 %34, ptr %16, align 4, !tbaa !124
  call void @llvm.lifetime.start.p0(i64 4, ptr %17) #3
  store i32 1, ptr %17, align 4, !tbaa !124
  call void @llvm.lifetime.start.p0(i64 4, ptr %18) #3
  store i32 0, ptr %18, align 4, !tbaa !124
  call void @llvm.lifetime.start.p0(i64 8, ptr %19) #3
  store double 0.000000e+00, ptr %19, align 8, !tbaa !138
  call void @llvm.lifetime.start.p0(i64 4, ptr %20) #3
  %35 = load ptr, ptr %6, align 8
  %36 = load i32, ptr %35, align 4, !tbaa !124
  call void @__kmpc_for_static_init_4(ptr @1, i32 %36, i32 34, ptr %18, ptr %15, ptr %16, ptr %17, i32 1, i32 1)
  %37 = load i32, ptr %16, align 4, !tbaa !124
  %38 = load i32, ptr %13, align 4, !tbaa !124
  %39 = icmp sgt i32 %37, %38
  br i1 %39, label %40, label %42

40:                                               ; preds = %33
  %41 = load i32, ptr %13, align 4, !tbaa !124
  br label %44

42:                                               ; preds = %33
  %43 = load i32, ptr %16, align 4, !tbaa !124
  br label %44

44:                                               ; preds = %42, %40
  %45 = phi i32 [ %41, %40 ], [ %43, %42 ]
  store i32 %45, ptr %16, align 4, !tbaa !124
  %46 = load i32, ptr %15, align 4, !tbaa !124
  store i32 %46, ptr %11, align 4, !tbaa !124
  br label %47

47:                                               ; preds = %79, %44
  %48 = load i32, ptr %11, align 4, !tbaa !124
  %49 = load i32, ptr %16, align 4, !tbaa !124
  %50 = icmp sle i32 %48, %49
  br i1 %50, label %52, label %51

51:                                               ; preds = %47
  br label %82

52:                                               ; preds = %47
  %53 = load i32, ptr %11, align 4, !tbaa !124
  %54 = mul nsw i32 %53, 1
  %55 = add nsw i32 0, %54
  store i32 %55, ptr %20, align 4, !tbaa !124
  %56 = getelementptr inbounds nuw %"class.LightGBM::BinaryMetric.34", ptr %22, i32 0, i32 2
  %57 = load ptr, ptr %56, align 8, !tbaa !376
  %58 = load i32, ptr %20, align 4, !tbaa !124
  %59 = sext i32 %58 to i64
  %60 = getelementptr inbounds float, ptr %57, i64 %59
  %61 = load float, ptr %60, align 4, !tbaa !130
  %62 = load ptr, ptr %24, align 8, !tbaa !135
  %63 = load i32, ptr %20, align 4, !tbaa !124
  %64 = sext i32 %63 to i64
  %65 = getelementptr inbounds double, ptr %62, i64 %64
  %66 = load double, ptr %65, align 8, !tbaa !138
  %67 = invoke noundef double @_ZN8LightGBM17BinaryErrorMetric11LossOnPointEfd(float noundef %61, double noundef %66)
          to label %68 unwind label %99

68:                                               ; preds = %52
  %69 = getelementptr inbounds nuw %"class.LightGBM::BinaryMetric.34", ptr %22, i32 0, i32 3
  %70 = load ptr, ptr %69, align 8, !tbaa !377
  %71 = load i32, ptr %20, align 4, !tbaa !124
  %72 = sext i32 %71 to i64
  %73 = getelementptr inbounds float, ptr %70, i64 %72
  %74 = load float, ptr %73, align 4, !tbaa !130
  %75 = fpext float %74 to double
  %76 = load double, ptr %19, align 8, !tbaa !138
  %77 = call double @llvm.fmuladd.f64(double %67, double %75, double %76)
  store double %77, ptr %19, align 8, !tbaa !138
  br label %78

78:                                               ; preds = %68
  br label %79

79:                                               ; preds = %78
  %80 = load i32, ptr %11, align 4, !tbaa !124
  %81 = add nsw i32 %80, 1
  store i32 %81, ptr %11, align 4, !tbaa !124
  br label %47

82:                                               ; preds = %51
  br label %83

83:                                               ; preds = %82
  %84 = load ptr, ptr %6, align 8
  %85 = load i32, ptr %84, align 4, !tbaa !124
  call void @__kmpc_for_static_fini(ptr @1, i32 %85)
  %86 = getelementptr inbounds [1 x ptr], ptr %21, i64 0, i64 0
  store ptr %19, ptr %86, align 8
  %87 = load ptr, ptr %6, align 8
  %88 = load i32, ptr %87, align 4, !tbaa !124
  %89 = call i32 @__kmpc_reduce_nowait(ptr @2, i32 %88, i32 1, i64 8, ptr %21, ptr @_ZNK8LightGBM12BinaryMetricINS_17BinaryErrorMetricEE4EvalEPKdPKNS_17ObjectiveFunctionE.omp_outlined.50.omp.reduction.reduction_func, ptr @.gomp_critical_user_.reduction.var)
  switch i32 %89, label %97 [
    i32 1, label %90
    i32 2, label %94
  ]

90:                                               ; preds = %83
  %91 = load double, ptr %23, align 8, !tbaa !138
  %92 = load double, ptr %19, align 8, !tbaa !138
  %93 = fadd double %91, %92
  store double %93, ptr %23, align 8, !tbaa !138
  call void @__kmpc_end_reduce_nowait(ptr @2, i32 %88, ptr @.gomp_critical_user_.reduction.var)
  br label %97

94:                                               ; preds = %83
  %95 = load double, ptr %19, align 8, !tbaa !138
  %96 = atomicrmw fadd ptr %23, double %95 monotonic, align 8
  br label %97

97:                                               ; preds = %94, %90, %83
  call void @llvm.lifetime.end.p0(i64 4, ptr %20) #3
  call void @llvm.lifetime.end.p0(i64 8, ptr %19) #3
  call void @llvm.lifetime.end.p0(i64 4, ptr %18) #3
  call void @llvm.lifetime.end.p0(i64 4, ptr %17) #3
  call void @llvm.lifetime.end.p0(i64 4, ptr %16) #3
  call void @llvm.lifetime.end.p0(i64 4, ptr %15) #3
  br label %98

98:                                               ; preds = %97, %5
  call void @llvm.lifetime.end.p0(i64 4, ptr %13) #3
  call void @llvm.lifetime.end.p0(i64 4, ptr %12) #3
  call void @llvm.lifetime.end.p0(i64 4, ptr %11) #3
  ret void

99:                                               ; preds = %52
  %100 = landingpad { ptr, i32 }
          catch ptr null
  %101 = extractvalue { ptr, i32 } %100, 0
  call void @__clang_call_terminate(ptr %101) #27
  unreachable
}